target datalayout = "e-m:e-p270:32:32-p271:32:32-p272:64:64-i64:64-i128:128-f80:128-n8:16:32:64-S128"
target triple = "x86_64-unknown-linux-gnu"

%"class.std::__shared_count" = type { ptr }
%"class.std::shared_ptr.8" = type { %"class.std::__shared_ptr.9" }
%"class.std::__shared_ptr.9" = type { ptr, %"class.std::__shared_count" }
%"class.OpenColorIO_v2_4dev::(anonymous namespace)::GradingRGBCurveOpCPU" = type { %"class.OpenColorIO_v2_4dev::OpCPU", %"class.std::shared_ptr.8" }
%"class.OpenColorIO_v2_4dev::OpCPU" = type { ptr }
%"class.OpenColorIO_v2_4dev::DynamicProperty" = type { ptr }
%"class.OpenColorIO_v2_4dev::DynamicPropertyGradingRGBCurveImpl" = type { %"class.OpenColorIO_v2_4dev::DynamicPropertyImpl.base", %"class.OpenColorIO_v2_4dev::DynamicPropertyGradingRGBCurve", %"class.std::shared_ptr.34", %"struct.OpenColorIO_v2_4dev::GradingBSplineCurveImpl::KnotsCoefs" }
%"class.OpenColorIO_v2_4dev::DynamicPropertyImpl.base" = type <{ %"class.OpenColorIO_v2_4dev::DynamicProperty", i32, i8 }>
%"class.OpenColorIO_v2_4dev::DynamicPropertyGradingRGBCurve" = type { ptr }
%"class.std::shared_ptr.34" = type { %"class.std::__shared_ptr.35" }
%"class.std::__shared_ptr.35" = type { ptr, %"class.std::__shared_count" }
%"struct.OpenColorIO_v2_4dev::GradingBSplineCurveImpl::KnotsCoefs" = type { i8, %"class.std::vector.37", %"class.std::vector.37", %"class.std::vector.42", %"class.std::vector.42" }
%"class.std::vector.37" = type { %"struct.std::_Vector_base.38" }
%"struct.std::_Vector_base.38" = type { %"struct.std::_Vector_base<int, std::allocator<int>>::_Vector_impl" }
%"struct.std::_Vector_base<int, std::allocator<int>>::_Vector_impl" = type { %"struct.std::_Vector_base<int, std::allocator<int>>::_Vector_impl_data" }
%"struct.std::_Vector_base<int, std::allocator<int>>::_Vector_impl_data" = type { ptr, ptr, ptr }
%"class.std::vector.42" = type { %"struct.std::_Vector_base.43" }
%"struct.std::_Vector_base.43" = type { %"struct.std::_Vector_base<float, std::allocator<float>>::_Vector_impl" }
%"struct.std::_Vector_base<float, std::allocator<float>>::_Vector_impl" = type { %"struct.std::_Vector_base<float, std::allocator<float>>::_Vector_impl_data" }
%"struct.std::_Vector_base<float, std::allocator<float>>::_Vector_impl_data" = type { ptr, ptr, ptr }

; Function Attrs: mustprogress nounwind uwtable
define linkonce_odr hidden noundef ptr @_ZNKSt12__shared_ptrIN19OpenColorIO_v2_4dev34DynamicPropertyGradingRGBCurveImplELN9__gnu_cxx12_Lock_policyE2EE3getEv(ptr noundef nonnull align 8 dereferenceable(16) %this) #5 comdat align 2 {
entry:
  %this.addr = alloca ptr, align 8
  store ptr %this, ptr %this.addr, align 8
  %this1 = load ptr, ptr %this.addr, align 8
  %_M_ptr = getelementptr inbounds %"class.std::__shared_ptr.9", ptr %this1, i32 0, i32 0
  %0 = load ptr, ptr %_M_ptr, align 8
  ret ptr %0
}

; Function Attrs: mustprogress nounwind uwtable
define linkonce_odr hidden noundef ptr @_ZNKSt19__shared_ptr_accessIN19OpenColorIO_v2_4dev34DynamicPropertyGradingRGBCurveImplELN9__gnu_cxx12_Lock_policyE2ELb0ELb0EE6_M_getEv(ptr noundef nonnull align 1 dereferenceable(1) %this) #5 comdat align 2 {
entry:
  %this.addr = alloca ptr, align 8
  store ptr %this, ptr %this.addr, align 8
  %this1 = load ptr, ptr %this.addr, align 8
  %call = call noundef ptr @_ZNKSt12__shared_ptrIN19OpenColorIO_v2_4dev34DynamicPropertyGradingRGBCurveImplELN9__gnu_cxx12_Lock_policyE2EE3getEv(ptr noundef nonnull align 8 dereferenceable(16) %this1) #3
  ret ptr %call
}

; Function Attrs: mustprogress uwtable
define internal void @_ZNK19OpenColorIO_v2_4dev12_GLOBAL__N_120GradingRGBCurveOpCPU4evalERKNS_23GradingBSplineCurveImpl10KnotsCoefsEPfPKf(ptr noundef nonnull align 8 dereferenceable(24) %this, ptr noundef nonnull align 8 dereferenceable(104) %knotsCoefs, ptr noundef %out, ptr noundef %in) #6 align 2 {
entry:
  %this.addr = alloca ptr, align 8
  %knotsCoefs.addr = alloca ptr, align 8
  %out.addr = alloca ptr, align 8
  %in.addr = alloca ptr, align 8
  store ptr %this, ptr %this.addr, align 8
  store ptr %knotsCoefs, ptr %knotsCoefs.addr, align 8
  store ptr %out, ptr %out.addr, align 8
  store ptr %in, ptr %in.addr, align 8
  %0 = load ptr, ptr %knotsCoefs.addr, align 8
  %1 = load ptr, ptr %in.addr, align 8
  %arrayidx = getelementptr inbounds float, ptr %1, i64 0
  %2 = load float, ptr %arrayidx, align 4
  %call = call noundef float @_ZNK19OpenColorIO_v2_4dev23GradingBSplineCurveImpl10KnotsCoefs9evalCurveEif(ptr noundef nonnull align 8 dereferenceable(104) %0, i32 noundef 0, float noundef %2)
  %3 = load ptr, ptr %out.addr, align 8
  %arrayidx2 = getelementptr inbounds float, ptr %3, i64 0
  store float %call, ptr %arrayidx2, align 4
  %4 = load ptr, ptr %knotsCoefs.addr, align 8
  %5 = load ptr, ptr %in.addr, align 8
  %arrayidx3 = getelementptr inbounds float, ptr %5, i64 1
  %6 = load float, ptr %arrayidx3, align 4
  %call4 = call noundef float @_ZNK19OpenColorIO_v2_4dev23GradingBSplineCurveImpl10KnotsCoefs9evalCurveEif(ptr noundef nonnull align 8 dereferenceable(104) %4, i32 noundef 1, float noundef %6)
  %7 = load ptr, ptr %out.addr, align 8
  %arrayidx5 = getelementptr inbounds float, ptr %7, i64 1
  store float %call4, ptr %arrayidx5, align 4
  %8 = load ptr, ptr %knotsCoefs.addr, align 8
  %9 = load ptr, ptr %in.addr, align 8
  %arrayidx6 = getelementptr inbounds float, ptr %9, i64 2
  %10 = load float, ptr %arrayidx6, align 4
  %call7 = call noundef float @_ZNK19OpenColorIO_v2_4dev23GradingBSplineCurveImpl10KnotsCoefs9evalCurveEif(ptr noundef nonnull align 8 dereferenceable(104) %8, i32 noundef 2, float noundef %10)
  %11 = load ptr, ptr %out.addr, align 8
  %arrayidx8 = getelementptr inbounds float, ptr %11, i64 2
  store float %call7, ptr %arrayidx8, align 4
  %12 = load ptr, ptr %knotsCoefs.addr, align 8
  %13 = load ptr, ptr %out.addr, align 8
  %arrayidx9 = getelementptr inbounds float, ptr %13, i64 0
  %14 = load float, ptr %arrayidx9, align 4
  %call10 = call noundef float @_ZNK19OpenColorIO_v2_4dev23GradingBSplineCurveImpl10KnotsCoefs9evalCurveEif(ptr noundef nonnull align 8 dereferenceable(104) %12, i32 noundef 3, float noundef %14)
  %15 = load ptr, ptr %out.addr, align 8
  %arrayidx11 = getelementptr inbounds float, ptr %15, i64 0
  store float %call10, ptr %arrayidx11, align 4
  %16 = load ptr, ptr %knotsCoefs.addr, align 8
  %17 = load ptr, ptr %out.addr, align 8
  %arrayidx12 = getelementptr inbounds float, ptr %17, i64 1
  %18 = load float, ptr %arrayidx12, align 4
  %call13 = call noundef float @_ZNK19OpenColorIO_v2_4dev23GradingBSplineCurveImpl10KnotsCoefs9evalCurveEif(ptr noundef nonnull align 8 dereferenceable(104) %16, i32 noundef 3, float noundef %18)
  %19 = load ptr, ptr %out.addr, align 8
  %arrayidx14 = getelementptr inbounds float, ptr %19, i64 1
  store float %call13, ptr %arrayidx14, align 4
  %20 = load ptr, ptr %knotsCoefs.addr, align 8
  %21 = load ptr, ptr %out.addr, align 8
  %arrayidx15 = getelementptr inbounds float, ptr %21, i64 2
  %22 = load float, ptr %arrayidx15, align 4
  %call16 = call noundef float @_ZNK19OpenColorIO_v2_4dev23GradingBSplineCurveImpl10KnotsCoefs9evalCurveEif(ptr noundef nonnull align 8 dereferenceable(104) %20, i32 noundef 3, float noundef %22)
  %23 = load ptr, ptr %out.addr, align 8
  %arrayidx17 = getelementptr inbounds float, ptr %23, i64 2
  store float %call16, ptr %arrayidx17, align 4
  ret void
}

; Function Attrs: mustprogress nounwind uwtable
define linkonce_odr hidden noundef nonnull align 8 dereferenceable(104) ptr @_ZNK19OpenColorIO_v2_4dev34DynamicPropertyGradingRGBCurveImpl13getKnotsCoefsEv(ptr noundef nonnull align 8 dereferenceable(144) %this) #5 comdat align 2 {
entry:
  %this.addr = alloca ptr, align 8
  store ptr %this, ptr %this.addr, align 8
  %this1 = load ptr, ptr %this.addr, align 8
  %m_knotsCoefs = getelementptr inbounds %"class.OpenColorIO_v2_4dev::DynamicPropertyGradingRGBCurveImpl", ptr %this1, i32 0, i32 3
  ret ptr %m_knotsCoefs
}

; Function Attrs: mustprogress nounwind uwtable
define linkonce_odr hidden noundef ptr @_ZNKSt19__shared_ptr_accessIN19OpenColorIO_v2_4dev34DynamicPropertyGradingRGBCurveImplELN9__gnu_cxx12_Lock_policyE2ELb0ELb0EEptEv(ptr noundef nonnull align 1 dereferenceable(1) %this) #5 comdat align 2 {
entry:
  %this.addr = alloca ptr, align 8
  store ptr %this, ptr %this.addr, align 8
  %this1 = load ptr, ptr %this.addr, align 8
  %call = call noundef ptr @_ZNKSt19__shared_ptr_accessIN19OpenColorIO_v2_4dev34DynamicPropertyGradingRGBCurveImplELN9__gnu_cxx12_Lock_policyE2ELb0ELb0EE6_M_getEv(ptr noundef nonnull align 1 dereferenceable(1) %this1) #3
  ret ptr %call
}

; Function Attrs: mustprogress uwtable
define internal void @_ZNK19OpenColorIO_v2_4dev12_GLOBAL__N_123GradingRGBCurveFwdOpCPU5applyEPKvPvl(ptr noundef nonnull align 8 dereferenceable(24) %this, ptr noundef %inImg, ptr noundef %outImg, i64 noundef %numPixels) unnamed_addr #6 align 2 {
entry:
  %this.addr = alloca ptr, align 8
  %inImg.addr = alloca ptr, align 8
  %outImg.addr = alloca ptr, align 8
  %numPixels.addr = alloca i64, align 8
  %in = alloca ptr, align 8
  %out = alloca ptr, align 8
  %idx = alloca i64, align 8
  store ptr %this, ptr %this.addr, align 8
  store ptr %inImg, ptr %inImg.addr, align 8
  store ptr %outImg, ptr %outImg.addr, align 8
  store i64 %numPixels, ptr %numPixels.addr, align 8
  %this1 = load ptr, ptr %this.addr, align 8
  %m_grgbcurve = getelementptr inbounds %"class.OpenColorIO_v2_4dev::(anonymous namespace)::GradingRGBCurveOpCPU", ptr %this1, i32 0, i32 1
  %call = call noundef ptr @_ZNKSt19__shared_ptr_accessIN19OpenColorIO_v2_4dev34DynamicPropertyGradingRGBCurveImplELN9__gnu_cxx12_Lock_policyE2ELb0ELb0EEptEv(ptr noundef nonnull align 1 dereferenceable(1) %m_grgbcurve) #3
  %call2 = call noundef zeroext i1 @_ZNK19OpenColorIO_v2_4dev34DynamicPropertyGradingRGBCurveImpl14getLocalBypassEv(ptr noundef nonnull align 8 dereferenceable(144) %call)
  br i1 %call2, label %if.then, label %if.end4

if.then:                                          ; preds = %entry
  %0 = load ptr, ptr %inImg.addr, align 8
  %1 = load ptr, ptr %outImg.addr, align 8
  %cmp = icmp ne ptr %0, %1
  br i1 %cmp, label %if.then3, label %if.end

if.then3:                                         ; preds = %if.then
  %2 = load ptr, ptr %outImg.addr, align 8
  %3 = load ptr, ptr %inImg.addr, align 8
  %4 = load i64, ptr %numPixels.addr, align 8
  %mul = mul i64 %4, 16
  call void @llvm.memcpy.p0.p0.i64(ptr align 1 %2, ptr align 1 %3, i64 %mul, i1 false)
  br label %if.end

if.end:                                           ; preds = %if.then3, %if.then
  br label %for.end

if.end4:                                          ; preds = %entry
  %5 = load ptr, ptr %inImg.addr, align 8
  store ptr %5, ptr %in, align 8
  %6 = load ptr, ptr %outImg.addr, align 8
  store ptr %6, ptr %out, align 8
  store i64 0, ptr %idx, align 8
  br label %for.cond

for.cond:                                         ; preds = %for.inc, %if.end4
  %7 = load i64, ptr %idx, align 8
  %8 = load i64, ptr %numPixels.addr, align 8
  %cmp5 = icmp slt i64 %7, %8
  br i1 %cmp5, label %for.body, label %for.end

for.body:                                         ; preds = %for.cond
  %m_grgbcurve6 = getelementptr inbounds %"class.OpenColorIO_v2_4dev::(anonymous namespace)::GradingRGBCurveOpCPU", ptr %this1, i32 0, i32 1
  %call7 = call noundef ptr @_ZNKSt19__shared_ptr_accessIN19OpenColorIO_v2_4dev34DynamicPropertyGradingRGBCurveImplELN9__gnu_cxx12_Lock_policyE2ELb0ELb0EEptEv(ptr noundef nonnull align 1 dereferenceable(1) %m_grgbcurve6) #3
  %call8 = call noundef nonnull align 8 dereferenceable(104) ptr @_ZNK19OpenColorIO_v2_4dev34DynamicPropertyGradingRGBCurveImpl13getKnotsCoefsEv(ptr noundef nonnull align 8 dereferenceable(144) %call7)
  %9 = load ptr, ptr %out, align 8
  %10 = load ptr, ptr %in, align 8
  call void @_ZNK19OpenColorIO_v2_4dev12_GLOBAL__N_120GradingRGBCurveOpCPU4evalERKNS_23GradingBSplineCurveImpl10KnotsCoefsEPfPKf(ptr noundef nonnull align 8 dereferenceable(24) %this1, ptr noundef nonnull align 8 dereferenceable(104) %call8, ptr noundef %9, ptr noundef %10)
  %11 = load ptr, ptr %in, align 8
  %arrayidx = getelementptr inbounds float, ptr %11, i64 3
  %12 = load float, ptr %arrayidx, align 4
  %13 = load ptr, ptr %out, align 8
  %arrayidx9 = getelementptr inbounds float, ptr %13, i64 3
  store float %12, ptr %arrayidx9, align 4
  %14 = load ptr, ptr %in, align 8
  %add.ptr = getelementptr inbounds float, ptr %14, i64 4
  store ptr %add.ptr, ptr %in, align 8
  %15 = load ptr, ptr %out, align 8
  %add.ptr10 = getelementptr inbounds float, ptr %15, i64 4
  store ptr %add.ptr10, ptr %out, align 8
  br label %for.inc

for.inc:                                          ; preds = %for.body
  %16 = load i64, ptr %idx, align 8
  %inc = add nsw i64 %16, 1
  store i64 %inc, ptr %idx, align 8
  br label %for.cond, !llvm.loop !6

for.end:                                          ; preds = %for.cond, %if.end
  ret void
}